target datalayout = "e-m:e-p270:32:32-p271:32:32-p272:64:64-i64:64-i128:128-f80:128-n8:16:32:64-S128"
target triple = "x86_64-pc-linux-gnu"

%struct.AVRational = type { i32, i32 }
%struct.AVFormatContext = type { ptr, ptr, ptr, ptr, ptr, i32, i32, ptr, i32, ptr, i32, ptr, ptr, i64, i64, i64, i32, i32, i32, i64, i64, ptr, i32, i32, ptr, i32, i32, i32, i32, ptr, i64, i32, i32, %struct.AVIOInterruptCB, i32, i32, i32, i32, i64, i32, i32, i32, i32, i32, i32, i32, i32, i32, i32, i32, i32, i64, i32, i32, i32, i32, i32, ptr, ptr, ptr, ptr, i32, ptr, ptr, ptr, ptr, i32, ptr, ptr, i64, ptr, ptr, ptr, i64 }
%struct.AVIOInterruptCB = type { ptr, ptr }
%struct.LavfiContext = type { ptr, ptr, ptr, ptr, ptr, ptr, ptr, ptr, ptr, ptr, i32, %struct.AVPacket }
%struct.AVPacket = type { ptr, i64, i64, ptr, i32, i32, i32, ptr, i32, i64, i64, ptr, ptr, %struct.AVRational }
%struct.AVChannelLayout = type { i32, i32, %union.anon.0, ptr }
%union.anon.0 = type { i64 }
%struct.AVFrame = type { [8 x ptr], [8 x i32], ptr, i32, i32, i32, i32, i32, %struct.AVRational, i64, i64, %struct.AVRational, i32, ptr, i32, i32, [8 x ptr], ptr, i32, ptr, i32, i32, i32, i32, i32, i32, i32, i64, ptr, i32, ptr, ptr, i64, i64, i64, i64, ptr, %struct.AVChannelLayout, i64 }
%struct.AVFrameSideData = type { i32, ptr, i64, ptr, ptr }

; Function Attrs: nounwind uwtable
define internal i32 @create_subcc_packet(ptr noundef %0, ptr noundef %1, i32 noundef %2) #1 {
  %4 = alloca i32, align 4
  %5 = alloca ptr, align 8
  %6 = alloca ptr, align 8
  %7 = alloca i32, align 4
  %8 = alloca ptr, align 8
  %9 = alloca ptr, align 8
  %10 = alloca i32, align 4
  %11 = alloca i32, align 4
  %12 = alloca i32, align 4
  store ptr %0, ptr %5, align 8, !tbaa !4
  store ptr %1, ptr %6, align 8, !tbaa !104
  store i32 %2, ptr %7, align 4, !tbaa !29
  call void @llvm.lifetime.start.p0(i64 8, ptr %8) #8
  %13 = load ptr, ptr %5, align 8, !tbaa !4
  %14 = getelementptr inbounds nuw %struct.AVFormatContext, ptr %13, i32 0, i32 3
  %15 = load ptr, ptr %14, align 8, !tbaa !9
  store ptr %15, ptr %8, align 8, !tbaa !26
  call void @llvm.lifetime.start.p0(i64 8, ptr %9) #8
  call void @llvm.lifetime.start.p0(i64 4, ptr %10) #8
  call void @llvm.lifetime.start.p0(i64 4, ptr %11) #8
  %16 = load ptr, ptr %8, align 8, !tbaa !26
  %17 = getelementptr inbounds nuw %struct.LavfiContext, ptr %16, i32 0, i32 9
  %18 = load ptr, ptr %17, align 8, !tbaa !56
  %19 = load i32, ptr %7, align 4, !tbaa !29
  %20 = sext i32 %19 to i64
  %21 = getelementptr inbounds i32, ptr %18, i64 %20
  %22 = load i32, ptr %21, align 4, !tbaa !29
  store i32 %22, ptr %10, align 4, !tbaa !29
  %23 = icmp slt i32 %22, 0
  br i1 %23, label %24, label %25

24:                                               ; preds = %3
  store i32 0, ptr %4, align 4
  store i32 1, ptr %12, align 4
  br label %62

25:                                               ; preds = %3
  %26 = load ptr, ptr %6, align 8, !tbaa !104
  %27 = call ptr @av_frame_get_side_data(ptr noundef %26, i32 noundef 1)
  store ptr %27, ptr %9, align 8, !tbaa !132
  %28 = icmp ne ptr %27, null
  br i1 %28, label %30, label %29

29:                                               ; preds = %25
  store i32 0, ptr %4, align 4
  store i32 1, ptr %12, align 4
  br label %62

30:                                               ; preds = %25
  %31 = load ptr, ptr %8, align 8, !tbaa !26
  %32 = getelementptr inbounds nuw %struct.LavfiContext, ptr %31, i32 0, i32 11
  %33 = load ptr, ptr %9, align 8, !tbaa !132
  %34 = getelementptr inbounds nuw %struct.AVFrameSideData, ptr %33, i32 0, i32 2
  %35 = load i64, ptr %34, align 8, !tbaa !134
  %36 = trunc i64 %35 to i32
  %37 = call i32 @av_new_packet(ptr noundef %32, i32 noundef %36)
  store i32 %37, ptr %11, align 4, !tbaa !29
  %38 = icmp slt i32 %37, 0
  br i1 %38, label %39, label %41

39:                                               ; preds = %30
  %40 = load i32, ptr %11, align 4, !tbaa !29
  store i32 %40, ptr %4, align 4
  store i32 1, ptr %12, align 4
  br label %62

41:                                               ; preds = %30
  %42 = load ptr, ptr %8, align 8, !tbaa !26
  %43 = getelementptr inbounds nuw %struct.LavfiContext, ptr %42, i32 0, i32 11
  %44 = getelementptr inbounds nuw %struct.AVPacket, ptr %43, i32 0, i32 3
  %45 = load ptr, ptr %44, align 8, !tbaa !136
  %46 = load ptr, ptr %9, align 8, !tbaa !132
  %47 = getelementptr inbounds nuw %struct.AVFrameSideData, ptr %46, i32 0, i32 1
  %48 = load ptr, ptr %47, align 8, !tbaa !137
  %49 = load ptr, ptr %9, align 8, !tbaa !132
  %50 = getelementptr inbounds nuw %struct.AVFrameSideData, ptr %49, i32 0, i32 2
  %51 = load i64, ptr %50, align 8, !tbaa !134
  call void @llvm.memcpy.p0.p0.i64(ptr align 1 %45, ptr align 1 %48, i64 %51, i1 false)
  %52 = load i32, ptr %10, align 4, !tbaa !29
  %53 = load ptr, ptr %8, align 8, !tbaa !26
  %54 = getelementptr inbounds nuw %struct.LavfiContext, ptr %53, i32 0, i32 11
  %55 = getelementptr inbounds nuw %struct.AVPacket, ptr %54, i32 0, i32 5
  store i32 %52, ptr %55, align 4, !tbaa !138
  %56 = load ptr, ptr %6, align 8, !tbaa !104
  %57 = getelementptr inbounds nuw %struct.AVFrame, ptr %56, i32 0, i32 9
  %58 = load i64, ptr %57, align 8, !tbaa !106
  %59 = load ptr, ptr %8, align 8, !tbaa !26
  %60 = getelementptr inbounds nuw %struct.LavfiContext, ptr %59, i32 0, i32 11
  %61 = getelementptr inbounds nuw %struct.AVPacket, ptr %60, i32 0, i32 1
  store i64 %58, ptr %61, align 8, !tbaa !139
  store i32 0, ptr %4, align 4
  store i32 1, ptr %12, align 4
  br label %62

62:                                               ; preds = %41, %39, %29, %24
  call void @llvm.lifetime.end.p0(i64 4, ptr %11) #8
  call void @llvm.lifetime.end.p0(i64 4, ptr %10) #8
  call void @llvm.lifetime.end.p0(i64 8, ptr %9) #8
  call void @llvm.lifetime.end.p0(i64 8, ptr %8) #8
  %63 = load i32, ptr %4, align 4
  ret i32 %63
}