; Function Attrs: nounwind uwtable
define internal fastcc range(i32 -2147483648, 1) i32 @create_subcc_packet(ptr %.24.val, ptr noundef nonnull %0, i32 noundef %1) unnamed_addr #1 {
  %3 = getelementptr inbounds nuw i8, ptr %.24.val, i64 72
  %4 = load ptr, ptr %3, align 8, !tbaa !47
  %5 = sext i32 %1 to i64
  %6 = getelementptr inbounds i32, ptr %4, i64 %5
  %7 = load i32, ptr %6, align 4, !tbaa !48
  %8 = icmp slt i32 %7, 0
  br i1 %8, label %28, label %9

9:                                                ; preds = %2
  %10 = tail call ptr @av_frame_get_side_data(ptr noundef nonnull %0, i32 noundef 1) #10
  %.not = icmp eq ptr %10, null
  br i1 %.not, label %28, label %11

11:                                               ; preds = %9
  %12 = getelementptr inbounds nuw i8, ptr %.24.val, i64 88
  %13 = getelementptr inbounds nuw i8, ptr %10, i64 16
  %14 = load i64, ptr %13, align 8, !tbaa !118
  %15 = trunc i64 %14 to i32
  %16 = tail call i32 @av_new_packet(ptr noundef nonnull %12, i32 noundef %15) #10
  %17 = icmp slt i32 %16, 0
  br i1 %17, label %28, label %18

18:                                               ; preds = %11
  %19 = getelementptr inbounds nuw i8, ptr %.24.val, i64 112
  %20 = load ptr, ptr %19, align 8, !tbaa !120
  %21 = getelementptr inbounds nuw i8, ptr %10, i64 8
  %22 = load ptr, ptr %21, align 8, !tbaa !121
  %23 = load i64, ptr %13, align 8, !tbaa !118
  tail call void @llvm.memcpy.p0.p0.i64(ptr align 1 %20, ptr align 1 %22, i64 %23, i1 false)
  %24 = getelementptr inbounds nuw i8, ptr %.24.val, i64 124
  store i32 %7, ptr %24, align 4, !tbaa !122
  %25 = getelementptr inbounds nuw i8, ptr %0, i64 136
  %26 = load i64, ptr %25, align 8, !tbaa !91
  %27 = getelementptr inbounds nuw i8, ptr %.24.val, i64 96
  store i64 %26, ptr %27, align 8, !tbaa !123
  br label %28

28:                                               ; preds = %11, %9, %2, %18
  %.0 = phi i32 [ 0, %18 ], [ 0, %2 ], [ 0, %9 ], [ %16, %11 ]
  ret i32 %.0
}